target datalayout = "e-m:e-p270:32:32-p271:32:32-p272:64:64-i64:64-i128:128-f80:128-n8:16:32:64-S128"
target triple = "x86_64-pc-linux-gnu"

%struct.hb_blob_t = type { %struct.hb_object_header_t, ptr, i32, i32, ptr, ptr }
%struct.hb_object_header_t = type { %struct.hb_reference_count_t, %struct.hb_atomic_int_t, %struct.hb_atomic_ptr_t }
%struct.hb_reference_count_t = type { %struct.hb_atomic_int_t }
%struct.hb_atomic_int_t = type { i32 }
%struct.hb_atomic_ptr_t = type { ptr }

@.str = private unnamed_addr constant [5 x i8] c"BLOB\00", align 1
@__PRETTY_FUNCTION__._ZN9hb_blob_t30try_make_writable_inplace_unixEv = private unnamed_addr constant [49 x i8] c"bool hb_blob_t::try_make_writable_inplace_unix()\00", align 1
@.str.1 = private unnamed_addr constant [27 x i8] c"failed to get pagesize: %s\00", align 1
@.str.2 = private unnamed_addr constant [16 x i8] c"pagesize is %lu\00", align 1
@.str.3 = private unnamed_addr constant [41 x i8] c"calling mprotect on [%p..%p] (%lu bytes)\00", align 1
@.str.4 = private unnamed_addr constant [20 x i8] c"mprotect failed: %s\00", align 1
@.str.5 = private unnamed_addr constant [49 x i8] c"successfully made [%p..%p] (%lu bytes) writable\0A\00", align 1

; Function Attrs: mustprogress nounwind uwtable
define internal void @_ZL13_hb_debug_msgILi0EEvPKcPKvS1_bjiS1_z(ptr noundef %0, ptr noundef %1, ptr noundef %2, i1 noundef zeroext %3, i32 noundef %4, i32 noundef %5, ptr noundef %6, ...) #1 {
  %8 = alloca ptr, align 8
  %9 = alloca ptr, align 8
  %10 = alloca ptr, align 8
  %11 = alloca i8, align 1
  %12 = alloca i32, align 4
  %13 = alloca i32, align 4
  %14 = alloca ptr, align 8
  store ptr %0, ptr %8, align 8
  store ptr %1, ptr %9, align 8
  store ptr %2, ptr %10, align 8
  %15 = zext i1 %3 to i8
  store i8 %15, ptr %11, align 1
  store i32 %4, ptr %12, align 4
  store i32 %5, ptr %13, align 4
  store ptr %6, ptr %14, align 8
  ret void
}

; Function Attrs: mustprogress uwtable
define hidden noundef zeroext i1 @_ZN9hb_blob_t30try_make_writable_inplace_unixEv(ptr noundef nonnull align 8 dereferenceable(48) %0) #0 align 2 {
  %2 = alloca i1, align 1
  %3 = alloca ptr, align 8
  %4 = alloca i64, align 8
  %5 = alloca i64, align 8
  %6 = alloca i64, align 8
  %7 = alloca ptr, align 8
  store ptr %0, ptr %3, align 8
  %8 = load ptr, ptr %3, align 8
  store i64 -1, ptr %4, align 8
  %9 = call i64 @sysconf(i32 noundef 30) #14
  store i64 %9, ptr %4, align 8
  %10 = load i64, ptr %4, align 8
  %11 = icmp eq i64 -1, %10
  br i1 %11, label %12, label %16

12:                                               ; preds = %1
  %13 = call ptr @__errno_location() #15
  %14 = load i32, ptr %13, align 4
  %15 = call ptr @strerror(i32 noundef %14) #14
  call void (ptr, ptr, ptr, i1, i32, i32, ptr, ...) @_ZL13_hb_debug_msgILi0EEvPKcPKvS1_bjiS1_z(ptr noundef @.str, ptr noundef %8, ptr noundef @__PRETTY_FUNCTION__._ZN9hb_blob_t30try_make_writable_inplace_unixEv, i1 noundef zeroext false, i32 noundef 0, i32 noundef 0, ptr noundef @.str.1, ptr noundef %15)
  store i1 false, ptr %2, align 1
  br label %64

16:                                               ; preds = %1
  %17 = load i64, ptr %4, align 8
  call void (ptr, ptr, ptr, i1, i32, i32, ptr, ...) @_ZL13_hb_debug_msgILi0EEvPKcPKvS1_bjiS1_z(ptr noundef @.str, ptr noundef %8, ptr noundef @__PRETTY_FUNCTION__._ZN9hb_blob_t30try_make_writable_inplace_unixEv, i1 noundef zeroext false, i32 noundef 0, i32 noundef 0, ptr noundef @.str.2, i64 noundef %17)
  %18 = load i64, ptr %4, align 8
  %19 = sub i64 %18, 1
  %20 = xor i64 %19, -1
  store i64 %20, ptr %5, align 8
  %21 = getelementptr inbounds %struct.hb_blob_t, ptr %8, i32 0, i32 1
  %22 = load ptr, ptr %21, align 8
  %23 = ptrtoint ptr %22 to i64
  %24 = load i64, ptr %5, align 8
  %25 = and i64 %23, %24
  %26 = inttoptr i64 %25 to ptr
  store ptr %26, ptr %7, align 8
  %27 = getelementptr inbounds %struct.hb_blob_t, ptr %8, i32 0, i32 1
  %28 = load ptr, ptr %27, align 8
  %29 = ptrtoint ptr %28 to i64
  %30 = getelementptr inbounds %struct.hb_blob_t, ptr %8, i32 0, i32 2
  %31 = load i32, ptr %30, align 8
  %32 = zext i32 %31 to i64
  %33 = add i64 %29, %32
  %34 = load i64, ptr %4, align 8
  %35 = add i64 %33, %34
  %36 = sub i64 %35, 1
  %37 = load i64, ptr %5, align 8
  %38 = and i64 %36, %37
  %39 = inttoptr i64 %38 to ptr
  %40 = load ptr, ptr %7, align 8
  %41 = ptrtoint ptr %39 to i64
  %42 = ptrtoint ptr %40 to i64
  %43 = sub i64 %41, %42
  store i64 %43, ptr %6, align 8
  %44 = load ptr, ptr %7, align 8
  %45 = load ptr, ptr %7, align 8
  %46 = load i64, ptr %6, align 8
  %47 = getelementptr inbounds i8, ptr %45, i64 %46
  %48 = load i64, ptr %6, align 8
  call void (ptr, ptr, ptr, i1, i32, i32, ptr, ...) @_ZL13_hb_debug_msgILi0EEvPKcPKvS1_bjiS1_z(ptr noundef @.str, ptr noundef %8, ptr noundef @__PRETTY_FUNCTION__._ZN9hb_blob_t30try_make_writable_inplace_unixEv, i1 noundef zeroext false, i32 noundef 0, i32 noundef 0, ptr noundef @.str.3, ptr noundef %44, ptr noundef %47, i64 noundef %48)
  %49 = load ptr, ptr %7, align 8
  %50 = load i64, ptr %6, align 8
  %51 = call i32 @mprotect(ptr noundef %49, i64 noundef %50, i32 noundef 3) #14
  %52 = icmp eq i32 -1, %51
  br i1 %52, label %53, label %57

53:                                               ; preds = %16
  %54 = call ptr @__errno_location() #15
  %55 = load i32, ptr %54, align 4
  %56 = call ptr @strerror(i32 noundef %55) #14
  call void (ptr, ptr, ptr, i1, i32, i32, ptr, ...) @_ZL13_hb_debug_msgILi0EEvPKcPKvS1_bjiS1_z(ptr noundef @.str, ptr noundef %8, ptr noundef @__PRETTY_FUNCTION__._ZN9hb_blob_t30try_make_writable_inplace_unixEv, i1 noundef zeroext false, i32 noundef 0, i32 noundef 0, ptr noundef @.str.4, ptr noundef %56)
  store i1 false, ptr %2, align 1
  br label %64

57:                                               ; preds = %16
  %58 = getelementptr inbounds %struct.hb_blob_t, ptr %8, i32 0, i32 3
  store i32 2, ptr %58, align 4
  %59 = load ptr, ptr %7, align 8
  %60 = load ptr, ptr %7, align 8
  %61 = load i64, ptr %6, align 8
  %62 = getelementptr inbounds i8, ptr %60, i64 %61
  %63 = load i64, ptr %6, align 8
  call void (ptr, ptr, ptr, i1, i32, i32, ptr, ...) @_ZL13_hb_debug_msgILi0EEvPKcPKvS1_bjiS1_z(ptr noundef @.str, ptr noundef %8, ptr noundef @__PRETTY_FUNCTION__._ZN9hb_blob_t30try_make_writable_inplace_unixEv, i1 noundef zeroext false, i32 noundef 0, i32 noundef 0, ptr noundef @.str.5, ptr noundef %59, ptr noundef %62, i64 noundef %63)
  store i1 true, ptr %2, align 1
  br label %64

64:                                               ; preds = %57, %53, %12
  %65 = load i1, ptr %2, align 1
  ret i1 %65
}