; Function Attrs: mustprogress nounwind uwtable
define hidden noundef zeroext i1 @_ZN9hb_blob_t30try_make_writable_inplace_unixEv(ptr nocapture noundef nonnull align 8 dereferenceable(48) %0) local_unnamed_addr #4 align 2 {
  %2 = tail call i64 @sysconf(i32 noundef 30) #20
  %3 = icmp eq i64 %2, -1
  br i1 %3, label %4, label %8

4:                                                ; preds = %1
  %5 = tail call ptr @__errno_location() #22
  %6 = load i32, ptr %5, align 4
  %7 = tail call ptr @strerror(i32 noundef %6) #20
  br label %31

8:                                                ; preds = %1
  %9 = sub i64 0, %2
  %10 = getelementptr inbounds i8, ptr %0, i64 16
  %11 = load ptr, ptr %10, align 8
  %12 = ptrtoint ptr %11 to i64
  %13 = and i64 %12, %9
  %14 = inttoptr i64 %13 to ptr
  %15 = getelementptr inbounds i8, ptr %0, i64 24
  %16 = load i32, ptr %15, align 8
  %17 = zext i32 %16 to i64
  %18 = add i64 %2, -1
  %19 = add i64 %18, %12
  %20 = add i64 %19, %17
  %21 = and i64 %20, %9
  %22 = sub i64 %21, %13
  %23 = tail call i32 @mprotect(ptr noundef %14, i64 noundef %22, i32 noundef 3) #20
  %24 = icmp eq i32 %23, -1
  br i1 %24, label %25, label %29

25:                                               ; preds = %8
  %26 = tail call ptr @__errno_location() #22
  %27 = load i32, ptr %26, align 4
  %28 = tail call ptr @strerror(i32 noundef %27) #20
  br label %31

29:                                               ; preds = %8
  %30 = getelementptr inbounds i8, ptr %0, i64 28
  store i32 2, ptr %30, align 4
  br label %31

31:                                               ; preds = %29, %25, %4
  %.0 = phi i1 [ false, %4 ], [ false, %25 ], [ true, %29 ]
  ret i1 %.0
}